target datalayout = "e-m:e-p270:32:32-p271:32:32-p272:64:64-i64:64-i128:128-f80:128-n8:16:32:64-S128"
target triple = "x86_64-pc-linux-gnu"

%struct.UCharIterator = type { ptr, i32, i32, i32, i32, i32, ptr, ptr, ptr, ptr, ptr, ptr, ptr, ptr, ptr, ptr }

; Function Attrs: mustprogress nounwind uwtable
define internal noundef i32 @_ZL18stringIteratorMoveP13UCharIteratori19UCharIteratorOrigin(ptr noundef %0, i32 noundef %1, i32 noundef %2) #3 {
  %4 = alloca i32, align 4
  %5 = alloca ptr, align 8
  %6 = alloca i32, align 4
  %7 = alloca i32, align 4
  %8 = alloca i32, align 4
  %9 = alloca i32, align 4
  store ptr %0, ptr %5, align 8, !tbaa !3
  store i32 %1, ptr %6, align 4, !tbaa !10
  store i32 %2, ptr %7, align 4, !tbaa !37
  call void @llvm.lifetime.start.p0(i64 4, ptr %8) #8
  %10 = load i32, ptr %7, align 4, !tbaa !37
  switch i32 %10, label %37 [
    i32 3, label %11
    i32 0, label %13
    i32 1, label %19
    i32 2, label %25
    i32 4, label %31
  ]

11:                                               ; preds = %3
  %12 = load i32, ptr %6, align 4, !tbaa !10
  store i32 %12, ptr %8, align 4, !tbaa !10
  br label %38

13:                                               ; preds = %3
  %14 = load ptr, ptr %5, align 8, !tbaa !3
  %15 = getelementptr inbounds nuw %struct.UCharIterator, ptr %14, i32 0, i32 2
  %16 = load i32, ptr %15, align 4, !tbaa !39
  %17 = load i32, ptr %6, align 4, !tbaa !10
  %18 = add nsw i32 %16, %17
  store i32 %18, ptr %8, align 4, !tbaa !10
  br label %38

19:                                               ; preds = %3
  %20 = load ptr, ptr %5, align 8, !tbaa !3
  %21 = getelementptr inbounds nuw %struct.UCharIterator, ptr %20, i32 0, i32 3
  %22 = load i32, ptr %21, align 8, !tbaa !40
  %23 = load i32, ptr %6, align 4, !tbaa !10
  %24 = add nsw i32 %22, %23
  store i32 %24, ptr %8, align 4, !tbaa !10
  br label %38

25:                                               ; preds = %3
  %26 = load ptr, ptr %5, align 8, !tbaa !3
  %27 = getelementptr inbounds nuw %struct.UCharIterator, ptr %26, i32 0, i32 4
  %28 = load i32, ptr %27, align 4, !tbaa !17
  %29 = load i32, ptr %6, align 4, !tbaa !10
  %30 = add nsw i32 %28, %29
  store i32 %30, ptr %8, align 4, !tbaa !10
  br label %38

31:                                               ; preds = %3
  %32 = load ptr, ptr %5, align 8, !tbaa !3
  %33 = getelementptr inbounds nuw %struct.UCharIterator, ptr %32, i32 0, i32 1
  %34 = load i32, ptr %33, align 8, !tbaa !16
  %35 = load i32, ptr %6, align 4, !tbaa !10
  %36 = add nsw i32 %34, %35
  store i32 %36, ptr %8, align 4, !tbaa !10
  br label %38

37:                                               ; preds = %3
  store i32 -1, ptr %4, align 4
  store i32 1, ptr %9, align 4
  br label %63

38:                                               ; preds = %31, %25, %19, %13, %11
  %39 = load i32, ptr %8, align 4, !tbaa !10
  %40 = load ptr, ptr %5, align 8, !tbaa !3
  %41 = getelementptr inbounds nuw %struct.UCharIterator, ptr %40, i32 0, i32 2
  %42 = load i32, ptr %41, align 4, !tbaa !39
  %43 = icmp slt i32 %39, %42
  br i1 %43, label %44, label %48

44:                                               ; preds = %38
  %45 = load ptr, ptr %5, align 8, !tbaa !3
  %46 = getelementptr inbounds nuw %struct.UCharIterator, ptr %45, i32 0, i32 2
  %47 = load i32, ptr %46, align 4, !tbaa !39
  store i32 %47, ptr %8, align 4, !tbaa !10
  br label %59

48:                                               ; preds = %38
  %49 = load i32, ptr %8, align 4, !tbaa !10
  %50 = load ptr, ptr %5, align 8, !tbaa !3
  %51 = getelementptr inbounds nuw %struct.UCharIterator, ptr %50, i32 0, i32 4
  %52 = load i32, ptr %51, align 4, !tbaa !17
  %53 = icmp sgt i32 %49, %52
  br i1 %53, label %54, label %58

54:                                               ; preds = %48
  %55 = load ptr, ptr %5, align 8, !tbaa !3
  %56 = getelementptr inbounds nuw %struct.UCharIterator, ptr %55, i32 0, i32 4
  %57 = load i32, ptr %56, align 4, !tbaa !17
  store i32 %57, ptr %8, align 4, !tbaa !10
  br label %58

58:                                               ; preds = %54, %48
  br label %59

59:                                               ; preds = %58, %44
  %60 = load i32, ptr %8, align 4, !tbaa !10
  %61 = load ptr, ptr %5, align 8, !tbaa !3
  %62 = getelementptr inbounds nuw %struct.UCharIterator, ptr %61, i32 0, i32 3
  store i32 %60, ptr %62, align 8, !tbaa !40
  store i32 %60, ptr %4, align 4
  store i32 1, ptr %9, align 4
  br label %63

63:                                               ; preds = %59, %37
  call void @llvm.lifetime.end.p0(i64 4, ptr %8) #8
  %64 = load i32, ptr %4, align 4
  ret i32 %64
}