; Function Attrs: mustprogress nofree norecurse nosync nounwind willreturn memory(argmem: readwrite) uwtable
define internal noundef i32 @_ZL18stringIteratorMoveP13UCharIteratori19UCharIteratorOrigin(ptr noundef captures(none) %0, i32 noundef %1, i32 noundef %2) #3 {
  switch i32 %2, label %29 [
    i32 3, label %20
    i32 0, label %4
    i32 1, label %8
    i32 2, label %12
    i32 4, label %16
  ]

4:                                                ; preds = %3
  %5 = getelementptr inbounds nuw i8, ptr %0, i64 12
  %6 = load i32, ptr %5, align 4, !tbaa !27
  %7 = add nsw i32 %6, %1
  br label %20

8:                                                ; preds = %3
  %9 = getelementptr inbounds nuw i8, ptr %0, i64 16
  %10 = load i32, ptr %9, align 8, !tbaa !28
  %11 = add nsw i32 %10, %1
  br label %20

12:                                               ; preds = %3
  %13 = getelementptr inbounds nuw i8, ptr %0, i64 20
  %14 = load i32, ptr %13, align 4, !tbaa !13
  %15 = add nsw i32 %14, %1
  br label %20

16:                                               ; preds = %3
  %17 = getelementptr inbounds nuw i8, ptr %0, i64 8
  %18 = load i32, ptr %17, align 8, !tbaa !12
  %19 = add nsw i32 %18, %1
  br label %20

20:                                               ; preds = %3, %16, %12, %8, %4
  %.0 = phi i32 [ %19, %16 ], [ %15, %12 ], [ %11, %8 ], [ %7, %4 ], [ %1, %3 ]
  %21 = getelementptr inbounds nuw i8, ptr %0, i64 12
  %22 = load i32, ptr %21, align 4, !tbaa !27
  %23 = icmp slt i32 %.0, %22
  br i1 %23, label %27, label %24

24:                                               ; preds = %20
  %25 = getelementptr inbounds nuw i8, ptr %0, i64 20
  %26 = load i32, ptr %25, align 4, !tbaa !13
  %spec.select = tail call i32 @llvm.smin.i32(i32 %.0, i32 %26)
  br label %27

27:                                               ; preds = %24, %20
  %.1 = phi i32 [ %22, %20 ], [ %spec.select, %24 ]
  %28 = getelementptr inbounds nuw i8, ptr %0, i64 16
  store i32 %.1, ptr %28, align 8, !tbaa !28
  br label %29

29:                                               ; preds = %3, %27
  %.018 = phi i32 [ %.1, %27 ], [ -1, %3 ]
  ret i32 %.018
}